; Function Attrs: mustprogress uwtable
define void @_ZNK6icu_7514SimpleTimeZone20checkTransitionRulesER10UErrorCode(ptr noundef nonnull align 8 dereferenceable(160) %this, ptr nocapture noundef nonnull align 4 dereferenceable(4) %status) local_unnamed_addr #1 align 2 {
entry:
  %0 = load i32, ptr %status, align 4
  %cmp.i = icmp slt i32 %0, 1
  br i1 %cmp.i, label %if.end, label %return

if.end:                                           ; preds = %entry
  tail call void @umtx_lock_75(ptr noundef nonnull @_ZZNK6icu_7514SimpleTimeZone20checkTransitionRulesER10UErrorCodeE5gLock)
  %transitionRulesInitialized = getelementptr inbounds i8, ptr %this, i64 120
  %1 = load i8, ptr %transitionRulesInitialized, align 8
  %tobool2.not = icmp eq i8 %1, 0
  br i1 %tobool2.not, label %if.then3, label %if.end4

if.then3:                                         ; preds = %if.end
  tail call void @_ZN6icu_7514SimpleTimeZone19initTransitionRulesER10UErrorCode(ptr noundef nonnull align 8 dereferenceable(160) %this, ptr noundef nonnull align 4 dereferenceable(4) %status)
  br label %if.end4

if.end4:                                          ; preds = %if.then3, %if.end
  tail call void @umtx_unlock_75(ptr noundef nonnull @_ZZNK6icu_7514SimpleTimeZone20checkTransitionRulesER10UErrorCodeE5gLock)
  br label %return

return:                                           ; preds = %entry, %if.end4
  ret void
}